target datalayout = "e-m:e-p270:32:32-p271:32:32-p272:64:64-i64:64-i128:128-f80:128-n8:16:32:64-S128"
target triple = "x86_64-pc-linux-gnu"

%struct.FunctionCallInfoBaseData = type { ptr, ptr, ptr, i32, i8, i16, [0 x %struct.NullableDatum] }
%struct.NullableDatum = type { i64, i8 }
%struct.pg_re_flags = type { i32, i8 }
%struct.regexp_matches_ctx = type { ptr, i32, i32, ptr, i32, ptr, ptr, ptr, ptr, i32 }

@CurrentMemoryContext = external global ptr, align 8
@.str.3 = private unnamed_addr constant [9 x i8] c"regexp.c\00", align 1
@.str.9 = private unnamed_addr constant [40 x i8] c"%s does not support the \22global\22 option\00", align 1
@.str.18 = private unnamed_addr constant [24 x i8] c"regexp_split_to_array()\00", align 1
@__func__.regexp_split_to_array = private unnamed_addr constant [22 x i8] c"regexp_split_to_array\00", align 1

; Function Attrs: inlinehint nounwind uwtable
define internal ptr @DatumGetPointer(i64 noundef %0) #6 {
  %2 = alloca i64, align 8
  store i64 %0, ptr %2, align 8
  %3 = load i64, ptr %2, align 8
  %4 = inttoptr i64 %3 to ptr
  ret ptr %4
}

; Function Attrs: nounwind uwtable
define dso_local i64 @regexp_split_to_array(ptr noundef %0) #0 {
  %2 = alloca ptr, align 8
  %3 = alloca ptr, align 8
  %4 = alloca %struct.pg_re_flags, align 4
  %5 = alloca ptr, align 8
  store ptr %0, ptr %2, align 8
  call void @llvm.lifetime.start.p0(i64 8, ptr %3) #8
  store ptr null, ptr %3, align 8
  call void @llvm.lifetime.start.p0(i64 8, ptr %4) #8
  call void @llvm.lifetime.start.p0(i64 8, ptr %5) #8
  %6 = load ptr, ptr %2, align 8
  %7 = getelementptr inbounds nuw %struct.FunctionCallInfoBaseData, ptr %6, i32 0, i32 5
  %8 = load i16, ptr %7, align 2
  %9 = sext i16 %8 to i32
  %10 = icmp sgt i32 %9, 2
  br i1 %10, label %11, label %19

11:                                               ; preds = %1
  %12 = load ptr, ptr %2, align 8
  %13 = getelementptr inbounds nuw %struct.FunctionCallInfoBaseData, ptr %12, i32 0, i32 6
  %14 = getelementptr inbounds [0 x %struct.NullableDatum], ptr %13, i64 0, i64 2
  %15 = getelementptr inbounds nuw %struct.NullableDatum, ptr %14, i32 0, i32 0
  %16 = load i64, ptr %15, align 8
  %17 = call ptr @DatumGetPointer(i64 noundef %16)
  %18 = call ptr @pg_detoast_datum_packed(ptr noundef %17)
  br label %20

19:                                               ; preds = %1
  br label %20

20:                                               ; preds = %19, %11
  %21 = phi ptr [ %18, %11 ], [ null, %19 ]
  call void @parse_re_flags(ptr noundef %4, ptr noundef %21)
  %22 = getelementptr inbounds nuw %struct.pg_re_flags, ptr %4, i32 0, i32 1
  %23 = load i8, ptr %22, align 4, !range !6, !noundef !7
  %24 = trunc i8 %23 to i1
  br i1 %24, label %25, label %37

25:                                               ; preds = %20
  br label %26

26:                                               ; preds = %25
  br i1 true, label %27, label %29

27:                                               ; preds = %26
  %28 = call zeroext i1 @errstart_cold(i32 noundef 21, ptr noundef null) #10
  br i1 %28, label %31, label %34

29:                                               ; preds = %26
  %30 = call zeroext i1 @errstart(i32 noundef 21, ptr noundef null)
  br i1 %30, label %31, label %34

31:                                               ; preds = %29, %27
  %32 = call i32 @errcode(i32 noundef 50856066)
  %33 = call i32 (ptr, ...) @errmsg(ptr noundef @.str.9, ptr noundef @.str.18)
  call void @errfinish(ptr noundef @.str.3, i32 noundef 1754, ptr noundef @__func__.regexp_split_to_array)
  br label %34

34:                                               ; preds = %31, %29, %27
  unreachable

35:                                               ; No predecessors!
  br label %36

36:                                               ; preds = %35
  br label %37

37:                                               ; preds = %36, %20
  %38 = getelementptr inbounds nuw %struct.pg_re_flags, ptr %4, i32 0, i32 1
  store i8 1, ptr %38, align 4
  %39 = load ptr, ptr %2, align 8
  %40 = getelementptr inbounds nuw %struct.FunctionCallInfoBaseData, ptr %39, i32 0, i32 6
  %41 = getelementptr inbounds [0 x %struct.NullableDatum], ptr %40, i64 0, i64 0
  %42 = getelementptr inbounds nuw %struct.NullableDatum, ptr %41, i32 0, i32 0
  %43 = load i64, ptr %42, align 8
  %44 = call ptr @DatumGetPointer(i64 noundef %43)
  %45 = call ptr @pg_detoast_datum_packed(ptr noundef %44)
  %46 = load ptr, ptr %2, align 8
  %47 = getelementptr inbounds nuw %struct.FunctionCallInfoBaseData, ptr %46, i32 0, i32 6
  %48 = getelementptr inbounds [0 x %struct.NullableDatum], ptr %47, i64 0, i64 1
  %49 = getelementptr inbounds nuw %struct.NullableDatum, ptr %48, i32 0, i32 0
  %50 = load i64, ptr %49, align 8
  %51 = call ptr @DatumGetPointer(i64 noundef %50)
  %52 = call ptr @pg_detoast_datum_packed(ptr noundef %51)
  %53 = load ptr, ptr %2, align 8
  %54 = getelementptr inbounds nuw %struct.FunctionCallInfoBaseData, ptr %53, i32 0, i32 3
  %55 = load i32, ptr %54, align 8
  %56 = call ptr @setup_regexp_matches(ptr noundef %45, ptr noundef %52, ptr noundef %4, i32 noundef 0, i32 noundef %55, i1 noundef zeroext false, i1 noundef zeroext true, i1 noundef zeroext true)
  store ptr %56, ptr %5, align 8
  br label %57

57:                                               ; preds = %65, %37
  %58 = load ptr, ptr %5, align 8
  %59 = getelementptr inbounds nuw %struct.regexp_matches_ctx, ptr %58, i32 0, i32 4
  %60 = load i32, ptr %59, align 8
  %61 = load ptr, ptr %5, align 8
  %62 = getelementptr inbounds nuw %struct.regexp_matches_ctx, ptr %61, i32 0, i32 1
  %63 = load i32, ptr %62, align 8
  %64 = icmp sle i32 %60, %63
  br i1 %64, label %65, label %75

65:                                               ; preds = %57
  %66 = load ptr, ptr %3, align 8
  %67 = load ptr, ptr %5, align 8
  %68 = call i64 @build_regexp_split_result(ptr noundef %67)
  %69 = load ptr, ptr @CurrentMemoryContext, align 8
  %70 = call ptr @accumArrayResult(ptr noundef %66, i64 noundef %68, i1 noundef zeroext false, i32 noundef 25, ptr noundef %69)
  store ptr %70, ptr %3, align 8
  %71 = load ptr, ptr %5, align 8
  %72 = getelementptr inbounds nuw %struct.regexp_matches_ctx, ptr %71, i32 0, i32 4
  %73 = load i32, ptr %72, align 8
  %74 = add i32 %73, 1
  store i32 %74, ptr %72, align 8
  br label %57, !llvm.loop !14

75:                                               ; preds = %57
  %76 = load ptr, ptr %3, align 8
  %77 = load ptr, ptr @CurrentMemoryContext, align 8
  %78 = call i64 @makeArrayResult(ptr noundef %76, ptr noundef %77)
  call void @llvm.lifetime.end.p0(i64 8, ptr %5) #8
  call void @llvm.lifetime.end.p0(i64 8, ptr %4) #8
  call void @llvm.lifetime.end.p0(i64 8, ptr %3) #8
  ret i64 %78
}