; Function Attrs: nounwind uwtable
define dso_local i64 @regexp_split_to_array(ptr noundef readonly captures(none) %0) local_unnamed_addr #0 {
  %2 = alloca %struct.pg_re_flags, align 4
  call void @llvm.lifetime.start.p0(i64 8, ptr nonnull %2) #9
  %3 = getelementptr inbounds nuw i8, ptr %0, i64 30
  %4 = load i16, ptr %3, align 2
  %5 = icmp sgt i16 %4, 2
  br i1 %5, label %6, label %11

6:                                                ; preds = %1
  %7 = getelementptr inbounds nuw i8, ptr %0, i64 64
  %8 = load i64, ptr %7, align 8
  %9 = inttoptr i64 %8 to ptr
  %10 = tail call ptr @pg_detoast_datum_packed(ptr noundef %9) #9
  br label %11

11:                                               ; preds = %1, %6
  %12 = phi ptr [ %10, %6 ], [ null, %1 ]
  call fastcc void @parse_re_flags(ptr noundef %2, ptr noundef %12)
  %13 = getelementptr inbounds nuw i8, ptr %2, i64 4
  %14 = load i8, ptr %13, align 4, !range !7, !noundef !8
  %15 = trunc nuw i8 %14 to i1
  br i1 %15, label %16, label %20

16:                                               ; preds = %11
  %17 = tail call zeroext i1 @errstart_cold(i32 noundef 21, ptr noundef null) #10
  tail call void @llvm.assume(i1 %17)
  %18 = tail call i32 @errcode(i32 noundef 50856066) #9
  %19 = tail call i32 (ptr, ...) @errmsg(ptr noundef nonnull @.str.9, ptr noundef nonnull @.str.18) #9
  tail call void @errfinish(ptr noundef nonnull @.str.3, i32 noundef 1754, ptr noundef nonnull @__func__.regexp_split_to_array) #9
  unreachable

20:                                               ; preds = %11
  %21 = getelementptr inbounds nuw i8, ptr %0, i64 32
  %22 = load i64, ptr %21, align 8
  %23 = inttoptr i64 %22 to ptr
  %24 = tail call ptr @pg_detoast_datum_packed(ptr noundef %23) #9
  %25 = getelementptr inbounds nuw i8, ptr %0, i64 48
  %26 = load i64, ptr %25, align 8
  %27 = inttoptr i64 %26 to ptr
  %28 = tail call ptr @pg_detoast_datum_packed(ptr noundef %27) #9
  %29 = getelementptr inbounds nuw i8, ptr %0, i64 24
  %30 = load i32, ptr %29, align 8
  %.val = load i32, ptr %2, align 4
  %31 = tail call fastcc ptr @setup_regexp_matches(ptr noundef %24, ptr noundef %28, i32 %.val, i8 1, i32 noundef 0, i32 noundef %30, i1 noundef zeroext false, i1 noundef zeroext true, i1 noundef zeroext true)
  %32 = getelementptr inbounds nuw i8, ptr %31, i64 24
  %33 = getelementptr inbounds nuw i8, ptr %31, i64 8
  %34 = load i32, ptr %32, align 8
  %35 = load i32, ptr %33, align 8
  %.not12 = icmp sgt i32 %34, %35
  br i1 %.not12, label %._crit_edge, label %.lr.ph

.lr.ph:                                           ; preds = %20, %.lr.ph
  %.013 = phi ptr [ %38, %.lr.ph ], [ null, %20 ]
  %36 = tail call fastcc i64 @build_regexp_split_result(ptr noundef nonnull %31)
  %37 = load ptr, ptr @CurrentMemoryContext, align 8
  %38 = tail call ptr @accumArrayResult(ptr noundef %.013, i64 noundef %36, i1 noundef zeroext false, i32 noundef 25, ptr noundef %37) #9
  %39 = load i32, ptr %32, align 8
  %40 = add i32 %39, 1
  store i32 %40, ptr %32, align 8
  %41 = load i32, ptr %33, align 8
  %.not = icmp sgt i32 %40, %41
  br i1 %.not, label %._crit_edge, label %.lr.ph, !llvm.loop !14

._crit_edge:                                      ; preds = %.lr.ph, %20
  %.0.lcssa = phi ptr [ null, %20 ], [ %38, %.lr.ph ]
  %42 = load ptr, ptr @CurrentMemoryContext, align 8
  %43 = tail call i64 @makeArrayResult(ptr noundef %.0.lcssa, ptr noundef %42) #9
  call void @llvm.lifetime.end.p0(i64 8, ptr nonnull %2) #9
  ret i64 %43
}